target datalayout = "e-m:e-p270:32:32-p271:32:32-p272:64:64-i64:64-i128:128-f80:128-n8:16:32:64-S128"
target triple = "x86_64-pc-linux-gnu"

%struct.VVCLocalContext = type { i8, i8, i8, i8, i32, i32, [4 x i8], [3276800 x i8], [16384 x i16], [16384 x i16], [16384 x i16], [32768 x i8], [332800 x i8], [368640 x i8], [368640 x i8], [17424 x i32], %struct.anon, %struct.anon.0, ptr, [2 x [1024 x %struct.ReconstructedArea]], [2 x i32], %struct.NeighbourAvailable, i32, ptr, ptr, ptr, ptr }
%struct.anon = type { i32, i8, i32, i32, i32, [3 x i32], i32, i32, i32, i32, i32, i32 }
%struct.anon.0 = type { i32, i32, i32 }
%struct.ReconstructedArea = type { i32, i32, i32, i32 }
%struct.NeighbourAvailable = type { i32, i32, i32, i32, i32 }
%struct.VVCFrameContext = type { ptr, [17 x %struct.VVCFrame], ptr, ptr, %struct.VVCFrameParamSets, ptr, i32, i32, ptr, %struct.VVCDSPContext, %struct.VideoDSPContext, ptr, i64, ptr, ptr, ptr, ptr, %struct.anon.1 }
%struct.VVCFrame = type { ptr, ptr, ptr, ptr, ptr, ptr, i32, i32, i32, %struct.VVCWindow, i32, i32, ptr, ptr, i16, i8, ptr }
%struct.VVCWindow = type { i16, i16, i16, i16 }
%struct.VVCFrameParamSets = type { ptr, ptr, %struct.VVCPH, [8 x ptr], %struct.VVCLMCS, ptr }
%struct.VVCPH = type { ptr, ptr, i32, i32, i8, [3 x i16], i8, [3 x i16], %struct.PredWeightTable }
%struct.PredWeightTable = type { [2 x i8], [2 x i8], [2 x [2 x [15 x i8]]], [2 x [3 x [15 x i16]]], [2 x [3 x [15 x i16]]] }
%struct.VVCLMCS = type { i8, i8, %union.anon, %union.anon, [17 x i16], [16 x i16] }
%union.anon = type { [4096 x i16] }
%struct.VVCDSPContext = type { %struct.VVCInterDSPContext, %struct.VVCIntraDSPContext, %struct.VVCItxDSPContext, %struct.VVCLMCSDSPContext, %struct.VVCLFDSPContext, %struct.VVCSAODSPContext, %struct.VVCALFDSPContext }
%struct.VVCInterDSPContext = type { [2 x [7 x [2 x [2 x ptr]]]], [2 x [7 x [2 x [2 x ptr]]]], [2 x [7 x [2 x [2 x ptr]]]], [2 x [7 x ptr]], [2 x [7 x ptr]], [2 x [7 x ptr]], ptr, ptr, ptr, ptr, ptr, ptr, ptr, ptr, ptr, ptr, ptr, [2 x [2 x ptr]] }
%struct.VVCIntraDSPContext = type { ptr, ptr, ptr, ptr, ptr, ptr, ptr, ptr, ptr, ptr }
%struct.VVCItxDSPContext = type { ptr, ptr, [3 x [6 x ptr]], ptr, ptr }
%struct.VVCLMCSDSPContext = type { ptr }
%struct.VVCLFDSPContext = type { [2 x ptr], [2 x ptr], [2 x ptr] }
%struct.VVCSAODSPContext = type { [9 x ptr], [9 x ptr], [2 x ptr] }
%struct.VVCALFDSPContext = type { [2 x ptr], ptr, ptr, ptr }
%struct.VideoDSPContext = type { ptr, ptr }
%struct.anon.1 = type { ptr, ptr, ptr, ptr, [2 x ptr], [2 x ptr], [2 x ptr], [2 x ptr], [2 x ptr], [3 x ptr], ptr, ptr, [2 x ptr], ptr, ptr, [2 x ptr], ptr, ptr, ptr, [2 x ptr], ptr, [3 x ptr], ptr, [2 x ptr], [2 x ptr], [2 x ptr], [2 x [3 x ptr]], [2 x ptr], [2 x ptr], [3 x ptr], [3 x ptr], [3 x [2 x ptr]], [3 x [2 x ptr]], ptr, ptr, ptr, [3 x ptr], %struct.anon.2 }
%struct.anon.2 = type { i32, i32, i32, i32, i32, i32, i32, i32, i32, i32, i32, i32 }
%struct.VVCSPS = type { ptr, [3 x i8], [3 x i8], i32, i8, i32, i8, i8, i8, i16, i8, i8, i8, i8, i8, i8, i8, i8, [5 x i32], i8, i8, [3 x [111 x i8]] }

; Function Attrs: alwaysinline nounwind willreturn memory(none) uwtable
define internal i32 @av_zero_extend_c(i32 noundef %0, i32 noundef %1) #3 {
  %3 = alloca i32, align 4
  %4 = alloca i32, align 4
  store i32 %0, ptr %3, align 4, !tbaa !9
  store i32 %1, ptr %4, align 4, !tbaa !9
  %5 = load i32, ptr %3, align 4, !tbaa !9
  %6 = load i32, ptr %4, align 4, !tbaa !9
  %7 = shl i32 1, %6
  %8 = sub i32 %7, 1
  %9 = and i32 %5, %8
  ret i32 %9
}

; Function Attrs: nounwind uwtable
define void @ff_vvc_set_neighbour_available(ptr noundef %0, i32 noundef %1, i32 noundef %2, i32 noundef %3, i32 noundef %4) #0 {
  %6 = alloca ptr, align 8
  %7 = alloca i32, align 4
  %8 = alloca i32, align 4
  %9 = alloca i32, align 4
  %10 = alloca i32, align 4
  %11 = alloca i32, align 4
  %12 = alloca i32, align 4
  %13 = alloca i32, align 4
  store ptr %0, ptr %6, align 8, !tbaa !4
  store i32 %1, ptr %7, align 4, !tbaa !9
  store i32 %2, ptr %8, align 4, !tbaa !9
  store i32 %3, ptr %9, align 4, !tbaa !9
  store i32 %4, ptr %10, align 4, !tbaa !9
  call void @llvm.lifetime.start.p0(i64 4, ptr %11) #7
  %14 = load ptr, ptr %6, align 8, !tbaa !4
  %15 = getelementptr inbounds nuw %struct.VVCLocalContext, ptr %14, i32 0, i32 24
  %16 = load ptr, ptr %15, align 8, !tbaa !11
  %17 = getelementptr inbounds nuw %struct.VVCFrameContext, ptr %16, i32 0, i32 4
  %18 = getelementptr inbounds nuw %struct.VVCFrameParamSets, ptr %17, i32 0, i32 0
  %19 = load ptr, ptr %18, align 8, !tbaa !22
  %20 = getelementptr inbounds nuw %struct.VVCSPS, ptr %19, i32 0, i32 8
  %21 = load i8, ptr %20, align 2, !tbaa !61
  %22 = zext i8 %21 to i32
  store i32 %22, ptr %11, align 4, !tbaa !9
  call void @llvm.lifetime.start.p0(i64 4, ptr %12) #7
  %23 = load i32, ptr %7, align 4, !tbaa !9
  %24 = load i32, ptr %11, align 4, !tbaa !9
  %25 = call i32 @av_zero_extend_c(i32 noundef %23, i32 noundef %24) #8
  store i32 %25, ptr %12, align 4, !tbaa !9
  call void @llvm.lifetime.start.p0(i64 4, ptr %13) #7
  %26 = load i32, ptr %8, align 4, !tbaa !9
  %27 = load i32, ptr %11, align 4, !tbaa !9
  %28 = call i32 @av_zero_extend_c(i32 noundef %26, i32 noundef %27) #8
  store i32 %28, ptr %13, align 4, !tbaa !9
  %29 = load ptr, ptr %6, align 8, !tbaa !4
  %30 = getelementptr inbounds nuw %struct.VVCLocalContext, ptr %29, i32 0, i32 1
  %31 = load i8, ptr %30, align 1, !tbaa !103
  %32 = zext i8 %31 to i32
  %33 = icmp ne i32 %32, 0
  br i1 %33, label %37, label %34

34:                                               ; preds = %5
  %35 = load i32, ptr %13, align 4, !tbaa !9
  %36 = icmp ne i32 %35, 0
  br label %37

37:                                               ; preds = %34, %5
  %38 = phi i1 [ true, %5 ], [ %36, %34 ]
  %39 = zext i1 %38 to i32
  %40 = load ptr, ptr %6, align 8, !tbaa !4
  %41 = getelementptr inbounds nuw %struct.VVCLocalContext, ptr %40, i32 0, i32 21
  %42 = getelementptr inbounds nuw %struct.NeighbourAvailable, ptr %41, i32 0, i32 1
  store i32 %39, ptr %42, align 4, !tbaa !141
  %43 = load ptr, ptr %6, align 8, !tbaa !4
  %44 = getelementptr inbounds nuw %struct.VVCLocalContext, ptr %43, i32 0, i32 0
  %45 = load i8, ptr %44, align 16, !tbaa !102
  %46 = zext i8 %45 to i32
  %47 = icmp ne i32 %46, 0
  br i1 %47, label %51, label %48

48:                                               ; preds = %37
  %49 = load i32, ptr %12, align 4, !tbaa !9
  %50 = icmp ne i32 %49, 0
  br label %51

51:                                               ; preds = %48, %37
  %52 = phi i1 [ true, %37 ], [ %50, %48 ]
  %53 = zext i1 %52 to i32
  %54 = load ptr, ptr %6, align 8, !tbaa !4
  %55 = getelementptr inbounds nuw %struct.VVCLocalContext, ptr %54, i32 0, i32 21
  %56 = getelementptr inbounds nuw %struct.NeighbourAvailable, ptr %55, i32 0, i32 0
  store i32 %53, ptr %56, align 8, !tbaa !142
  %57 = load i32, ptr %12, align 4, !tbaa !9
  %58 = icmp ne i32 %57, 0
  br i1 %58, label %62, label %59

59:                                               ; preds = %51
  %60 = load i32, ptr %13, align 4, !tbaa !9
  %61 = icmp ne i32 %60, 0
  br i1 %61, label %62, label %77

62:                                               ; preds = %59, %51
  %63 = load ptr, ptr %6, align 8, !tbaa !4
  %64 = getelementptr inbounds nuw %struct.VVCLocalContext, ptr %63, i32 0, i32 21
  %65 = getelementptr inbounds nuw %struct.NeighbourAvailable, ptr %64, i32 0, i32 0
  %66 = load i32, ptr %65, align 8, !tbaa !142
  %67 = icmp ne i32 %66, 0
  br i1 %67, label %68, label %74

68:                                               ; preds = %62
  %69 = load ptr, ptr %6, align 8, !tbaa !4
  %70 = getelementptr inbounds nuw %struct.VVCLocalContext, ptr %69, i32 0, i32 21
  %71 = getelementptr inbounds nuw %struct.NeighbourAvailable, ptr %70, i32 0, i32 1
  %72 = load i32, ptr %71, align 4, !tbaa !141
  %73 = icmp ne i32 %72, 0
  br label %74

74:                                               ; preds = %68, %62
  %75 = phi i1 [ false, %62 ], [ %73, %68 ]
  %76 = zext i1 %75 to i32
  br label %82

77:                                               ; preds = %59
  %78 = load ptr, ptr %6, align 8, !tbaa !4
  %79 = getelementptr inbounds nuw %struct.VVCLocalContext, ptr %78, i32 0, i32 3
  %80 = load i8, ptr %79, align 1, !tbaa !105
  %81 = zext i8 %80 to i32
  br label %82

82:                                               ; preds = %77, %74
  %83 = phi i32 [ %76, %74 ], [ %81, %77 ]
  %84 = load ptr, ptr %6, align 8, !tbaa !4
  %85 = getelementptr inbounds nuw %struct.VVCLocalContext, ptr %84, i32 0, i32 21
  %86 = getelementptr inbounds nuw %struct.NeighbourAvailable, ptr %85, i32 0, i32 2
  store i32 %83, ptr %86, align 8, !tbaa !143
  %87 = load i32, ptr %12, align 4, !tbaa !9
  %88 = load i32, ptr %9, align 4, !tbaa !9
  %89 = add nsw i32 %87, %88
  %90 = load i32, ptr %11, align 4, !tbaa !9
  %91 = shl i32 1, %90
  %92 = icmp eq i32 %89, %91
  br i1 %92, label %93, label %106

93:                                               ; preds = %82
  %94 = load ptr, ptr %6, align 8, !tbaa !4
  %95 = getelementptr inbounds nuw %struct.VVCLocalContext, ptr %94, i32 0, i32 2
  %96 = load i8, ptr %95, align 2, !tbaa !104
  %97 = zext i8 %96 to i32
  %98 = icmp ne i32 %97, 0
  br i1 %98, label %99, label %103

99:                                               ; preds = %93
  %100 = load i32, ptr %13, align 4, !tbaa !9
  %101 = icmp ne i32 %100, 0
  %102 = xor i1 %101, true
  br label %103

103:                                              ; preds = %99, %93
  %104 = phi i1 [ false, %93 ], [ %102, %99 ]
  %105 = zext i1 %104 to i32
  br label %111

106:                                              ; preds = %82
  %107 = load ptr, ptr %6, align 8, !tbaa !4
  %108 = getelementptr inbounds nuw %struct.VVCLocalContext, ptr %107, i32 0, i32 21
  %109 = getelementptr inbounds nuw %struct.NeighbourAvailable, ptr %108, i32 0, i32 1
  %110 = load i32, ptr %109, align 4, !tbaa !141
  br label %111

111:                                              ; preds = %106, %103
  %112 = phi i32 [ %105, %103 ], [ %110, %106 ]
  %113 = load ptr, ptr %6, align 8, !tbaa !4
  %114 = getelementptr inbounds nuw %struct.VVCLocalContext, ptr %113, i32 0, i32 21
  %115 = getelementptr inbounds nuw %struct.NeighbourAvailable, ptr %114, i32 0, i32 4
  store i32 %112, ptr %115, align 8, !tbaa !144
  %116 = load ptr, ptr %6, align 8, !tbaa !4
  %117 = getelementptr inbounds nuw %struct.VVCLocalContext, ptr %116, i32 0, i32 21
  %118 = getelementptr inbounds nuw %struct.NeighbourAvailable, ptr %117, i32 0, i32 4
  %119 = load i32, ptr %118, align 8, !tbaa !144
  %120 = icmp ne i32 %119, 0
  br i1 %120, label %121, label %129

121:                                              ; preds = %111
  %122 = load i32, ptr %7, align 4, !tbaa !9
  %123 = load i32, ptr %9, align 4, !tbaa !9
  %124 = add nsw i32 %122, %123
  %125 = load ptr, ptr %6, align 8, !tbaa !4
  %126 = getelementptr inbounds nuw %struct.VVCLocalContext, ptr %125, i32 0, i32 4
  %127 = load i32, ptr %126, align 4, !tbaa !82
  %128 = icmp slt i32 %124, %127
  br label %129

129:                                              ; preds = %121, %111
  %130 = phi i1 [ false, %111 ], [ %128, %121 ]
  %131 = zext i1 %130 to i32
  %132 = load ptr, ptr %6, align 8, !tbaa !4
  %133 = getelementptr inbounds nuw %struct.VVCLocalContext, ptr %132, i32 0, i32 21
  %134 = getelementptr inbounds nuw %struct.NeighbourAvailable, ptr %133, i32 0, i32 3
  store i32 %131, ptr %134, align 4, !tbaa !145
  call void @llvm.lifetime.end.p0(i64 4, ptr %13) #7
  call void @llvm.lifetime.end.p0(i64 4, ptr %12) #7
  call void @llvm.lifetime.end.p0(i64 4, ptr %11) #7
  ret void
}