; Function Attrs: mustprogress nofree norecurse nosync nounwind willreturn memory(read, argmem: readwrite, inaccessiblemem: none) uwtable
define void @ff_vvc_set_neighbour_available(ptr noundef captures(none) initializes((4580520, 4580540)) %0, i32 noundef %1, i32 noundef %2, i32 noundef %3, i32 noundef %4) local_unnamed_addr #3 {
  %6 = getelementptr inbounds nuw i8, ptr %0, i64 4580552
  %7 = load ptr, ptr %6, align 8, !tbaa !4
  %8 = getelementptr inbounds nuw i8, ptr %7, i64 1928
  %9 = load ptr, ptr %8, align 8, !tbaa !18
  %10 = getelementptr inbounds nuw i8, ptr %9, i64 30
  %11 = load i8, ptr %10, align 2, !tbaa !55
  %12 = zext i8 %11 to i32
  %notmask.i = shl nsw i32 -1, %12
  %13 = xor i32 %notmask.i, -1
  %14 = and i32 %1, %13
  %15 = and i32 %2, %13
  %16 = getelementptr inbounds nuw i8, ptr %0, i64 1
  %17 = load i8, ptr %16, align 1, !tbaa !92
  %18 = icmp ne i8 %17, 0
  %19 = icmp ne i32 %15, 0
  %20 = or i1 %18, %19
  %21 = zext i1 %20 to i32
  %22 = getelementptr inbounds nuw i8, ptr %0, i64 4580520
  %23 = getelementptr inbounds nuw i8, ptr %0, i64 4580524
  store i32 %21, ptr %23, align 4, !tbaa !179
  %24 = load i8, ptr %0, align 16, !tbaa !91
  %25 = icmp ne i8 %24, 0
  %26 = icmp ne i32 %14, 0
  %27 = or i1 %25, %26
  %28 = zext i1 %27 to i32
  store i32 %28, ptr %22, align 8, !tbaa !180
  %29 = or i32 %2, %1
  %30 = and i32 %29, %13
  %or.cond.not = icmp eq i32 %30, 0
  br i1 %or.cond.not, label %32, label %31

31:                                               ; preds = %5
  %spec.select = select i1 %27, i32 %21, i32 0
  br label %36

32:                                               ; preds = %5
  %33 = getelementptr inbounds nuw i8, ptr %0, i64 3
  %34 = load i8, ptr %33, align 1, !tbaa !178
  %35 = zext i8 %34 to i32
  br label %36

36:                                               ; preds = %31, %32
  %37 = phi i32 [ %35, %32 ], [ %spec.select, %31 ]
  %38 = getelementptr inbounds nuw i8, ptr %0, i64 4580528
  store i32 %37, ptr %38, align 8, !tbaa !181
  %39 = add nsw i32 %14, %3
  %40 = shl nuw i32 1, %12
  %41 = icmp eq i32 %39, %40
  br i1 %41, label %42, label %49

42:                                               ; preds = %36
  %43 = getelementptr inbounds nuw i8, ptr %0, i64 2
  %44 = load i8, ptr %43, align 2, !tbaa !177
  %45 = icmp ne i8 %44, 0
  %46 = xor i1 %19, true
  %47 = and i1 %45, %46
  %48 = zext i1 %47 to i32
  br label %49

49:                                               ; preds = %36, %42
  %50 = phi i32 [ %48, %42 ], [ %21, %36 ]
  %51 = getelementptr inbounds nuw i8, ptr %0, i64 4580536
  store i32 %50, ptr %51, align 8, !tbaa !182
  %.not = icmp eq i32 %50, 0
  br i1 %.not, label %58, label %52

52:                                               ; preds = %49
  %53 = add nsw i32 %3, %1
  %54 = getelementptr inbounds nuw i8, ptr %0, i64 4
  %55 = load i32, ptr %54, align 4, !tbaa !172
  %56 = icmp slt i32 %53, %55
  %57 = zext i1 %56 to i32
  br label %58

58:                                               ; preds = %52, %49
  %59 = phi i32 [ 0, %49 ], [ %57, %52 ]
  %60 = getelementptr inbounds nuw i8, ptr %0, i64 4580532
  store i32 %59, ptr %60, align 4, !tbaa !183
  ret void
}